target datalayout = "e-m:e-p270:32:32-p271:32:32-p272:64:64-i64:64-i128:128-f80:128-n8:16:32:64-S128"
target triple = "x86_64-pc-linux-gnu"

%"struct.clang::extractapi::ExtendedModule" = type { %"class.llvm::json::Array", %"class.llvm::json::Array" }
%"class.llvm::json::Array" = type { %"class.std::vector" }
%"class.std::vector" = type { %"struct.std::_Vector_base" }
%"struct.std::_Vector_base" = type { %"struct.std::_Vector_base<llvm::json::Value, std::allocator<llvm::json::Value>>::_Vector_impl" }
%"struct.std::_Vector_base<llvm::json::Value, std::allocator<llvm::json::Value>>::_Vector_impl" = type { %"struct.std::_Vector_base<llvm::json::Value, std::allocator<llvm::json::Value>>::_Vector_impl_data" }
%"struct.std::_Vector_base<llvm::json::Value, std::allocator<llvm::json::Value>>::_Vector_impl_data" = type { ptr, ptr, ptr }
%"class.llvm::StringRef" = type { ptr, i64 }
%"class.std::__cxx11::basic_string" = type { %"struct.std::__cxx11::basic_string<char>::_Alloc_hider", i64, %union.anon }
%"struct.std::__cxx11::basic_string<char>::_Alloc_hider" = type { ptr }
%union.anon = type { i64, [8 x i8] }
%"class.clang::extractapi::APISetVisitor" = type { ptr }
%"class.llvm::SmallVectorBase" = type { ptr, i32, i32 }
%"struct.clang::extractapi::APIRecord" = type { ptr, %"class.llvm::StringRef", %"class.llvm::StringRef", %"struct.clang::extractapi::SymbolReference", %"class.clang::PresumedLoc", %"struct.clang::AvailabilityInfo", %"class.clang::LinkageInfo", %"class.std::vector.32", %"class.clang::extractapi::DeclarationFragments", %"class.clang::extractapi::DeclarationFragments", i8, %"class.clang::extractapi::AccessControl", i32, i32, ptr }
%"struct.clang::extractapi::SymbolReference" = type { %"class.llvm::StringRef", %"class.llvm::StringRef", %"class.llvm::StringRef", ptr }
%"class.clang::PresumedLoc" = type { ptr, %"class.clang::FileID", i32, i32, %"class.clang::SourceLocation" }
%"class.clang::FileID" = type { i32 }
%"class.clang::SourceLocation" = type { i32 }
%"struct.clang::AvailabilityInfo" = type <{ %"class.llvm::SmallString", %"class.llvm::VersionTuple", %"class.llvm::VersionTuple", %"class.llvm::VersionTuple", i8, i8, i8, [5 x i8] }>
%"class.llvm::SmallString" = type { %"class.llvm::SmallVector.26" }
%"class.llvm::SmallVector.26" = type { %"class.llvm::SmallVectorImpl.27", %"struct.llvm::SmallVectorStorage.31" }
%"class.llvm::SmallVectorImpl.27" = type { %"class.llvm::SmallVectorTemplateBase.28" }
%"class.llvm::SmallVectorTemplateBase.28" = type { %"class.llvm::SmallVectorTemplateCommon.29" }
%"class.llvm::SmallVectorTemplateCommon.29" = type { %"class.llvm::SmallVectorBase.30" }
%"class.llvm::SmallVectorBase.30" = type { ptr, i64, i64 }
%"struct.llvm::SmallVectorStorage.31" = type { [32 x i8] }
%"class.llvm::VersionTuple" = type { i64, i64 }
%"class.clang::LinkageInfo" = type { i8 }
%"class.std::vector.32" = type { %"struct.std::_Vector_base.33" }
%"struct.std::_Vector_base.33" = type { %"struct.std::_Vector_base<clang::RawComment::CommentLine, std::allocator<clang::RawComment::CommentLine>>::_Vector_impl" }
%"struct.std::_Vector_base<clang::RawComment::CommentLine, std::allocator<clang::RawComment::CommentLine>>::_Vector_impl" = type { %"struct.std::_Vector_base<clang::RawComment::CommentLine, std::allocator<clang::RawComment::CommentLine>>::_Vector_impl_data" }
%"struct.std::_Vector_base<clang::RawComment::CommentLine, std::allocator<clang::RawComment::CommentLine>>::_Vector_impl_data" = type { ptr, ptr, ptr }
%"class.clang::extractapi::DeclarationFragments" = type { %"class.std::vector.37" }
%"class.std::vector.37" = type { %"struct.std::_Vector_base.38" }
%"struct.std::_Vector_base.38" = type { %"struct.std::_Vector_base<clang::extractapi::DeclarationFragments::Fragment, std::allocator<clang::extractapi::DeclarationFragments::Fragment>>::_Vector_impl" }
%"struct.std::_Vector_base<clang::extractapi::DeclarationFragments::Fragment, std::allocator<clang::extractapi::DeclarationFragments::Fragment>>::_Vector_impl" = type { %"struct.std::_Vector_base<clang::extractapi::DeclarationFragments::Fragment, std::allocator<clang::extractapi::DeclarationFragments::Fragment>>::_Vector_impl_data" }
%"struct.std::_Vector_base<clang::extractapi::DeclarationFragments::Fragment, std::allocator<clang::extractapi::DeclarationFragments::Fragment>>::_Vector_impl_data" = type { ptr, ptr, ptr }
%"class.clang::extractapi::AccessControl" = type { %"class.std::__cxx11::basic_string" }
%"class.clang::extractapi::SymbolGraphSerializer" = type { %"class.clang::extractapi::APISetVisitor", %"struct.clang::extractapi::ExtendedModule", %"class.llvm::StringMap", i8, %"class.llvm::SmallVector", ptr, i8, i8, ptr, ptr }
%"class.llvm::StringMap" = type { %"class.llvm::StringMapImpl" }
%"class.llvm::StringMapImpl" = type { ptr, i32, i32, i32, i32 }
%"class.llvm::SmallVector" = type { %"class.llvm::SmallVectorImpl", %"struct.llvm::SmallVectorStorage" }
%"class.llvm::SmallVectorImpl" = type { %"class.llvm::SmallVectorTemplateBase" }
%"class.llvm::SmallVectorTemplateBase" = type { %"class.llvm::SmallVectorTemplateCommon" }
%"class.llvm::SmallVectorTemplateCommon" = type { %"class.llvm::SmallVectorBase" }
%"struct.llvm::SmallVectorStorage" = type { [448 x i8] }
%"struct.clang::extractapi::ObjCCategoryRecord" = type { %"struct.clang::extractapi::ObjCContainerRecord", %"struct.clang::extractapi::SymbolReference" }
%"struct.clang::extractapi::ObjCContainerRecord" = type { %"struct.clang::extractapi::APIRecord", %"class.clang::extractapi::RecordContext", %"class.llvm::SmallVector.76" }
%"class.clang::extractapi::RecordContext" = type { i32, ptr, ptr }
%"class.llvm::SmallVector.76" = type { %"class.llvm::SmallVectorImpl", %"struct.llvm::SmallVectorStorage.77" }
%"struct.llvm::SmallVectorStorage.77" = type { [56 x i8] }

; Function Attrs: mustprogress nounwind uwtable
define dso_local noundef nonnull align 8 dereferenceable(48) ptr @_ZN5clang10extractapi21SymbolGraphSerializer25getModuleForCurrentSymbolEv(ptr noundef nonnull align 8 dereferenceable(584) %0) #0 align 2 {
  %2 = alloca ptr, align 8
  %3 = alloca ptr, align 8
  store ptr %0, ptr %3, align 8
  %4 = load ptr, ptr %3, align 8
  %5 = getelementptr inbounds nuw %"class.clang::extractapi::SymbolGraphSerializer", ptr %4, i32 0, i32 3
  %6 = load i8, ptr %5, align 8
  %7 = trunc i8 %6 to i1
  br i1 %7, label %15, label %8

8:                                                ; preds = %1
  %9 = getelementptr inbounds nuw %"class.clang::extractapi::SymbolGraphSerializer", ptr %4, i32 0, i32 9
  %10 = load ptr, ptr %9, align 8
  %11 = icmp ne ptr %10, null
  br i1 %11, label %12, label %15

12:                                               ; preds = %8
  %13 = getelementptr inbounds nuw %"class.clang::extractapi::SymbolGraphSerializer", ptr %4, i32 0, i32 9
  %14 = load ptr, ptr %13, align 8
  store ptr %14, ptr %2, align 8
  br label %17

15:                                               ; preds = %8, %1
  %16 = getelementptr inbounds nuw %"class.clang::extractapi::SymbolGraphSerializer", ptr %4, i32 0, i32 1
  store ptr %16, ptr %2, align 8
  br label %17

17:                                               ; preds = %15, %12
  %18 = load ptr, ptr %2, align 8
  ret ptr %18
}

; Function Attrs: mustprogress nounwind uwtable
define linkonce_odr hidden noundef ptr @_ZNK4llvm25SmallVectorTemplateCommonIN5clang10extractapi15SymbolReferenceEvE3endEv(ptr noundef nonnull align 8 dereferenceable(16) %0) #0 comdat align 2 {
  %2 = alloca ptr, align 8
  store ptr %0, ptr %2, align 8
  %3 = load ptr, ptr %2, align 8
  %4 = call noundef ptr @_ZNK4llvm25SmallVectorTemplateCommonIN5clang10extractapi15SymbolReferenceEvE5beginEv(ptr noundef nonnull align 8 dereferenceable(16) %3)
  %5 = call noundef i64 @_ZNK4llvm15SmallVectorBaseIjE4sizeEv(ptr noundef nonnull align 8 dereferenceable(16) %3)
  %6 = getelementptr inbounds %"struct.clang::extractapi::SymbolReference", ptr %4, i64 %5
  ret ptr %6
}

; Function Attrs: mustprogress nounwind uwtable
define linkonce_odr hidden noundef ptr @_ZNK4llvm25SmallVectorTemplateCommonIN5clang10extractapi15SymbolReferenceEvE5beginEv(ptr noundef nonnull align 8 dereferenceable(16) %0) #0 comdat align 2 {
  %2 = alloca ptr, align 8
  store ptr %0, ptr %2, align 8
  %3 = load ptr, ptr %2, align 8
  %4 = getelementptr inbounds nuw %"class.llvm::SmallVectorBase", ptr %3, i32 0, i32 0
  %5 = load ptr, ptr %4, align 8
  ret ptr %5
}

; Function Attrs: mustprogress nounwind uwtable
define dso_local noundef zeroext i1 @_ZN5clang10extractapi21SymbolGraphSerializer23visitObjCCategoryRecordEPKNS0_18ObjCCategoryRecordE(ptr noundef nonnull align 8 dereferenceable(584) %0, ptr noundef %1) #0 align 2 {
  %3 = alloca ptr, align 8
  %4 = alloca ptr, align 8
  %5 = alloca ptr, align 8
  %6 = alloca ptr, align 8
  %7 = alloca ptr, align 8
  %8 = alloca ptr, align 8
  store ptr %0, ptr %3, align 8
  store ptr %1, ptr %4, align 8
  %9 = load ptr, ptr %3, align 8
  %10 = load ptr, ptr %4, align 8
  %11 = getelementptr inbounds nuw %"struct.clang::extractapi::ObjCContainerRecord", ptr %10, i32 0, i32 2
  store ptr %11, ptr %5, align 8
  %12 = load ptr, ptr %5, align 8
  %13 = call noundef ptr @_ZNK4llvm25SmallVectorTemplateCommonIN5clang10extractapi15SymbolReferenceEvE5beginEv(ptr noundef nonnull align 8 dereferenceable(16) %12)
  store ptr %13, ptr %6, align 8
  %14 = load ptr, ptr %5, align 8
  %15 = call noundef ptr @_ZNK4llvm25SmallVectorTemplateCommonIN5clang10extractapi15SymbolReferenceEvE3endEv(ptr noundef nonnull align 8 dereferenceable(16) %14)
  store ptr %15, ptr %7, align 8
  br label %16

16:                                               ; preds = %26, %2
  %17 = load ptr, ptr %6, align 8
  %18 = load ptr, ptr %7, align 8
  %19 = icmp ne ptr %17, %18
  br i1 %19, label %20, label %29

20:                                               ; preds = %16
  %21 = load ptr, ptr %6, align 8
  store ptr %21, ptr %8, align 8
  %22 = load ptr, ptr %4, align 8
  %23 = getelementptr inbounds nuw %"struct.clang::extractapi::ObjCCategoryRecord", ptr %22, i32 0, i32 1
  %24 = load ptr, ptr %8, align 8
  %25 = call noundef nonnull align 8 dereferenceable(48) ptr @_ZN5clang10extractapi21SymbolGraphSerializer25getModuleForCurrentSymbolEv(ptr noundef nonnull align 8 dereferenceable(584) %9)
  call void @_ZN5clang10extractapi21SymbolGraphSerializer21serializeRelationshipENS1_16RelationshipKindERKNS0_15SymbolReferenceES5_RNS0_14ExtendedModuleE(ptr noundef nonnull align 8 dereferenceable(584) %9, i32 noundef 2, ptr noundef nonnull align 8 dereferenceable(56) %23, ptr noundef nonnull align 8 dereferenceable(56) %24, ptr noundef nonnull align 8 dereferenceable(48) %25)
  br label %26

26:                                               ; preds = %20
  %27 = load ptr, ptr %6, align 8
  %28 = getelementptr inbounds %"struct.clang::extractapi::SymbolReference", ptr %27, i32 1
  store ptr %28, ptr %6, align 8
  br label %16

29:                                               ; preds = %16
  ret i1 true
}

; Function Attrs: mustprogress nounwind uwtable
define dso_local noundef zeroext i1 @_ZN5clang10extractapi21SymbolGraphSerializer28walkUpFromObjCCategoryRecordEPKNS0_18ObjCCategoryRecordE(ptr noundef nonnull align 8 dereferenceable(584) %0, ptr noundef %1) #0 align 2 {
  %3 = alloca ptr, align 8
  %4 = alloca ptr, align 8
  store ptr %0, ptr %3, align 8
  store ptr %1, ptr %4, align 8
  %5 = load ptr, ptr %3, align 8
  %6 = load ptr, ptr %4, align 8
  %7 = call noundef zeroext i1 @_ZN5clang10extractapi21SymbolGraphSerializer23visitObjCCategoryRecordEPKNS0_18ObjCCategoryRecordE(ptr noundef nonnull align 8 dereferenceable(584) %5, ptr noundef %6)
  ret i1 %7
}