; Function Attrs: mustprogress nounwind uwtable
define dso_local noundef zeroext i1 @_ZN5clang10extractapi21SymbolGraphSerializer28walkUpFromObjCCategoryRecordEPKNS0_18ObjCCategoryRecordE(ptr noundef nonnull align 8 dereferenceable(584) %0, ptr noundef %1) local_unnamed_addr #0 align 2 {
  %3 = getelementptr inbounds nuw i8, ptr %1, i64 392
  %4 = load ptr, ptr %3, align 8
  %5 = tail call noundef i64 @_ZNK4llvm15SmallVectorBaseIjE4sizeEv(ptr noundef nonnull align 8 dereferenceable(16) %3) #16
  %6 = getelementptr inbounds %"struct.clang::extractapi::SymbolReference", ptr %4, i64 %5
  %.not10.i = icmp eq i64 %5, 0
  br i1 %.not10.i, label %_ZN5clang10extractapi21SymbolGraphSerializer23visitObjCCategoryRecordEPKNS0_18ObjCCategoryRecordE.exit, label %.lr.ph.i

.lr.ph.i:                                         ; preds = %2
  %7 = getelementptr inbounds nuw i8, ptr %1, i64 464
  %8 = getelementptr inbounds nuw i8, ptr %0, i64 80
  %9 = getelementptr inbounds nuw i8, ptr %0, i64 576
  %10 = getelementptr inbounds nuw i8, ptr %0, i64 8
  br label %11

11:                                               ; preds = %11, %.lr.ph.i
  %.011.i = phi ptr [ %4, %.lr.ph.i ], [ %15, %11 ]
  %12 = load i8, ptr %8, align 8
  %13 = trunc i8 %12 to i1
  %14 = load ptr, ptr %9, align 8
  %.not.i.i = icmp eq ptr %14, null
  %or.cond.i.i = select i1 %13, i1 true, i1 %.not.i.i
  %.0.i.i = select i1 %or.cond.i.i, ptr %10, ptr %14
  tail call void @_ZN5clang10extractapi21SymbolGraphSerializer21serializeRelationshipENS1_16RelationshipKindERKNS0_15SymbolReferenceES5_RNS0_14ExtendedModuleE(ptr noundef nonnull align 8 dereferenceable(584) %0, i32 noundef 2, ptr noundef nonnull align 8 dereferenceable(56) %7, ptr noundef nonnull align 8 dereferenceable(56) %.011.i, ptr noundef nonnull align 8 dereferenceable(48) %.0.i.i)
  %15 = getelementptr inbounds i8, ptr %.011.i, i64 56
  %.not.i = icmp eq ptr %15, %6
  br i1 %.not.i, label %_ZN5clang10extractapi21SymbolGraphSerializer23visitObjCCategoryRecordEPKNS0_18ObjCCategoryRecordE.exit, label %11

_ZN5clang10extractapi21SymbolGraphSerializer23visitObjCCategoryRecordEPKNS0_18ObjCCategoryRecordE.exit: ; preds = %11, %2
  ret i1 true
}